target datalayout = "e-m:e-p270:32:32-p271:32:32-p272:64:64-i64:64-i128:128-f80:128-n8:16:32:64-S128"
target triple = "x86_64-pc-linux-gnu"

%struct.H5C_log_info_t = type { i8, i8, ptr, ptr }
%struct.H5C_log_trace_udata_t = type { ptr, ptr }

@H5C_init_g = external global i8, align 1
@H5_libterm_g = external global i8, align 1
@.str = private unnamed_addr constant [106 x i8] c"generated/home/dtcxzyw/WorkSpace/Projects/compilers/llvm-opt-benchmark/bench/hdf5/hdf5/src/H5Clog_trace.c\00", align 1
@__func__.H5C__log_trace_set_up = private unnamed_addr constant [22 x i8] c"H5C__log_trace_set_up\00", align 1
@H5E_CACHE_g = external global i64, align 8
@H5E_CANTALLOC_g = external global i64, align 8
@.str.1 = private unnamed_addr constant [25 x i8] c"memory allocation failed\00", align 1
@.str.2 = private unnamed_addr constant [57 x i8] c"can't allocate memory for mdc log file name manipulation\00", align 1
@.str.3 = private unnamed_addr constant [3 x i8] c"%s\00", align 1
@.str.4 = private unnamed_addr constant [6 x i8] c"%s.%d\00", align 1
@.str.5 = private unnamed_addr constant [2 x i8] c"w\00", align 1
@H5E_LOGGING_g = external global i64, align 8
@.str.6 = private unnamed_addr constant [26 x i8] c"can't create mdc log file\00", align 1
@.str.7 = private unnamed_addr constant [50 x i8] c"### HDF5 metadata cache trace file version 1 ###\0A\00", align 1

; Function Attrs: nounwind uwtable
define i32 @H5C__log_trace_set_up(ptr noundef %0, ptr noundef %1, i32 noundef %2) #0 {
  %4 = alloca ptr, align 8
  %5 = alloca ptr, align 8
  %6 = alloca i32, align 4
  %7 = alloca ptr, align 8
  %8 = alloca ptr, align 8
  %9 = alloca i64, align 8
  %10 = alloca i32, align 4
  %11 = alloca i8, align 1
  store ptr %0, ptr %4, align 8, !tbaa !3
  store ptr %1, ptr %5, align 8, !tbaa !8
  store i32 %2, ptr %6, align 4, !tbaa !10
  call void @llvm.lifetime.start.p0(i64 8, ptr %7) #8
  store ptr null, ptr %7, align 8, !tbaa !12
  call void @llvm.lifetime.start.p0(i64 8, ptr %8) #8
  store ptr null, ptr %8, align 8, !tbaa !8
  call void @llvm.lifetime.start.p0(i64 8, ptr %9) #8
  call void @llvm.lifetime.start.p0(i64 4, ptr %10) #8
  store i32 0, ptr %10, align 4, !tbaa !10
  call void @llvm.lifetime.start.p0(i64 1, ptr %11) #8
  store i8 0, ptr %11, align 1, !tbaa !14
  %12 = load i8, ptr @H5C_init_g, align 1, !tbaa !14, !range !16, !noundef !17
  %13 = trunc i8 %12 to i1
  br i1 %13, label %18, label %14

14:                                               ; preds = %3
  %15 = load i8, ptr @H5_libterm_g, align 1, !tbaa !14, !range !16, !noundef !17
  %16 = trunc i8 %15 to i1
  %17 = xor i1 %16, true
  br label %18

18:                                               ; preds = %14, %3
  %19 = phi i1 [ true, %3 ], [ %17, %14 ]
  %20 = xor i1 %19, true
  %21 = xor i1 %20, true
  %22 = zext i1 %21 to i32
  %23 = sext i32 %22 to i64
  %24 = call i64 @llvm.expect.i64(i64 %23, i64 1)
  %25 = icmp ne i64 %24, 0
  br i1 %25, label %26, label %189

26:                                               ; preds = %18
  %27 = load ptr, ptr %4, align 8, !tbaa !3
  %28 = getelementptr inbounds nuw %struct.H5C_log_info_t, ptr %27, i32 0, i32 2
  store ptr @H5C_trace_log_class_g, ptr %28, align 8, !tbaa !18
  %29 = call noalias ptr @calloc(i64 noundef 1, i64 noundef 16) #9
  %30 = load ptr, ptr %4, align 8, !tbaa !3
  %31 = getelementptr inbounds nuw %struct.H5C_log_info_t, ptr %30, i32 0, i32 3
  store ptr %29, ptr %31, align 8, !tbaa !21
  %32 = icmp eq ptr null, %29
  br i1 %32, label %33, label %52

33:                                               ; preds = %26
  br label %34

34:                                               ; preds = %33
  br label %35

35:                                               ; preds = %34
  br label %36

36:                                               ; preds = %35
  %37 = load i64, ptr @H5E_CACHE_g, align 8, !tbaa !22
  %38 = load i64, ptr @H5E_CANTALLOC_g, align 8, !tbaa !22
  %39 = call i32 (ptr, ptr, i32, i64, i64, ptr, ...) @H5E_printf_stack(ptr noundef @.str, ptr noundef @__func__.H5C__log_trace_set_up, i32 noundef 215, i64 noundef %37, i64 noundef %38, ptr noundef @.str.1)
  br label %40

40:                                               ; preds = %36
  br label %41

41:                                               ; preds = %40
  store i8 1, ptr %11, align 1, !tbaa !14
  %42 = load i8, ptr %11, align 1, !tbaa !14, !range !16, !noundef !17
  %43 = trunc i8 %42 to i1
  %44 = zext i1 %43 to i8
  store i8 %44, ptr %11, align 1, !tbaa !14
  br label %45

45:                                               ; preds = %41
  br label %46

46:                                               ; preds = %45
  br label %47

47:                                               ; preds = %46
  store i32 -1, ptr %10, align 4, !tbaa !10
  br label %155

48:                                               ; No predecessors!
  br label %49

49:                                               ; preds = %48
  br label %50

50:                                               ; preds = %49
  br label %51

51:                                               ; preds = %50
  br label %52

52:                                               ; preds = %51, %26
  %53 = load ptr, ptr %4, align 8, !tbaa !3
  %54 = getelementptr inbounds nuw %struct.H5C_log_info_t, ptr %53, i32 0, i32 3
  %55 = load ptr, ptr %54, align 8, !tbaa !21
  store ptr %55, ptr %7, align 8, !tbaa !12
  %56 = call noalias ptr @calloc(i64 noundef 1, i64 noundef 4096) #9
  %57 = load ptr, ptr %7, align 8, !tbaa !12
  %58 = getelementptr inbounds nuw %struct.H5C_log_trace_udata_t, ptr %57, i32 0, i32 1
  store ptr %56, ptr %58, align 8, !tbaa !24
  %59 = icmp eq ptr null, %56
  br i1 %59, label %60, label %79

60:                                               ; preds = %52
  br label %61

61:                                               ; preds = %60
  br label %62

62:                                               ; preds = %61
  br label %63

63:                                               ; preds = %62
  %64 = load i64, ptr @H5E_CACHE_g, align 8, !tbaa !22
  %65 = load i64, ptr @H5E_CANTALLOC_g, align 8, !tbaa !22
  %66 = call i32 (ptr, ptr, i32, i64, i64, ptr, ...) @H5E_printf_stack(ptr noundef @.str, ptr noundef @__func__.H5C__log_trace_set_up, i32 noundef 220, i64 noundef %64, i64 noundef %65, ptr noundef @.str.1)
  br label %67

67:                                               ; preds = %63
  br label %68

68:                                               ; preds = %67
  store i8 1, ptr %11, align 1, !tbaa !14
  %69 = load i8, ptr %11, align 1, !tbaa !14, !range !16, !noundef !17
  %70 = trunc i8 %69 to i1
  %71 = zext i1 %70 to i8
  store i8 %71, ptr %11, align 1, !tbaa !14
  br label %72

72:                                               ; preds = %68
  br label %73

73:                                               ; preds = %72
  br label %74

74:                                               ; preds = %73
  store i32 -1, ptr %10, align 4, !tbaa !10
  br label %155

75:                                               ; No predecessors!
  br label %76

76:                                               ; preds = %75
  br label %77

77:                                               ; preds = %76
  br label %78

78:                                               ; preds = %77
  br label %79

79:                                               ; preds = %78, %52
  %80 = load ptr, ptr %5, align 8, !tbaa !8
  %81 = call i64 @strlen(ptr noundef %80) #10
  %82 = add i64 %81, 1
  %83 = add i64 %82, 39
  %84 = add i64 %83, 1
  store i64 %84, ptr %9, align 8, !tbaa !22
  %85 = load i64, ptr %9, align 8, !tbaa !22
  %86 = mul i64 %85, 1
  %87 = call noalias ptr @calloc(i64 noundef 1, i64 noundef %86) #9
  store ptr %87, ptr %8, align 8, !tbaa !8
  %88 = icmp eq ptr null, %87
  br i1 %88, label %89, label %108

89:                                               ; preds = %79
  br label %90

90:                                               ; preds = %89
  br label %91

91:                                               ; preds = %90
  br label %92

92:                                               ; preds = %91
  %93 = load i64, ptr @H5E_CACHE_g, align 8, !tbaa !22
  %94 = load i64, ptr @H5E_CANTALLOC_g, align 8, !tbaa !22
  %95 = call i32 (ptr, ptr, i32, i64, i64, ptr, ...) @H5E_printf_stack(ptr noundef @.str, ptr noundef @__func__.H5C__log_trace_set_up, i32 noundef 232, i64 noundef %93, i64 noundef %94, ptr noundef @.str.2)
  br label %96

96:                                               ; preds = %92
  br label %97

97:                                               ; preds = %96
  store i8 1, ptr %11, align 1, !tbaa !14
  %98 = load i8, ptr %11, align 1, !tbaa !14, !range !16, !noundef !17
  %99 = trunc i8 %98 to i1
  %100 = zext i1 %99 to i8
  store i8 %100, ptr %11, align 1, !tbaa !14
  br label %101

101:                                              ; preds = %97
  br label %102

102:                                              ; preds = %101
  br label %103

103:                                              ; preds = %102
  store i32 -1, ptr %10, align 4, !tbaa !10
  br label %155

104:                                              ; No predecessors!
  br label %105

105:                                              ; preds = %104
  br label %106

106:                                              ; preds = %105
  br label %107

107:                                              ; preds = %106
  br label %108

108:                                              ; preds = %107, %79
  %109 = load i32, ptr %6, align 4, !tbaa !10
  %110 = icmp eq i32 -1, %109
  br i1 %110, label %111, label %116

111:                                              ; preds = %108
  %112 = load ptr, ptr %8, align 8, !tbaa !8
  %113 = load i64, ptr %9, align 8, !tbaa !22
  %114 = load ptr, ptr %5, align 8, !tbaa !8
  %115 = call i32 (ptr, i64, ptr, ...) @snprintf(ptr noundef %112, i64 noundef %113, ptr noundef @.str.3, ptr noundef %114) #8
  br label %122

116:                                              ; preds = %108
  %117 = load ptr, ptr %8, align 8, !tbaa !8
  %118 = load i64, ptr %9, align 8, !tbaa !22
  %119 = load ptr, ptr %5, align 8, !tbaa !8
  %120 = load i32, ptr %6, align 4, !tbaa !10
  %121 = call i32 (ptr, i64, ptr, ...) @snprintf(ptr noundef %117, i64 noundef %118, ptr noundef @.str.4, ptr noundef %119, i32 noundef %120) #8
  br label %122

122:                                              ; preds = %116, %111
  %123 = load ptr, ptr %8, align 8, !tbaa !8
  %124 = call noalias ptr @fopen64(ptr noundef %123, ptr noundef @.str.5)
  %125 = load ptr, ptr %7, align 8, !tbaa !12
  %126 = getelementptr inbounds nuw %struct.H5C_log_trace_udata_t, ptr %125, i32 0, i32 0
  store ptr %124, ptr %126, align 8, !tbaa !27
  %127 = icmp eq ptr null, %124
  br i1 %127, label %128, label %147

128:                                              ; preds = %122
  br label %129

129:                                              ; preds = %128
  br label %130

130:                                              ; preds = %129
  br label %131

131:                                              ; preds = %130
  %132 = load i64, ptr @H5E_CACHE_g, align 8, !tbaa !22
  %133 = load i64, ptr @H5E_LOGGING_g, align 8, !tbaa !22
  %134 = call i32 (ptr, ptr, i32, i64, i64, ptr, ...) @H5E_printf_stack(ptr noundef @.str, ptr noundef @__func__.H5C__log_trace_set_up, i32 noundef 242, i64 noundef %132, i64 noundef %133, ptr noundef @.str.6)
  br label %135

135:                                              ; preds = %131
  br label %136

136:                                              ; preds = %135
  store i8 1, ptr %11, align 1, !tbaa !14
  %137 = load i8, ptr %11, align 1, !tbaa !14, !range !16, !noundef !17
  %138 = trunc i8 %137 to i1
  %139 = zext i1 %138 to i8
  store i8 %139, ptr %11, align 1, !tbaa !14
  br label %140

140:                                              ; preds = %136
  br label %141

141:                                              ; preds = %140
  br label %142

142:                                              ; preds = %141
  store i32 -1, ptr %10, align 4, !tbaa !10
  br label %155

143:                                              ; No predecessors!
  br label %144

144:                                              ; preds = %143
  br label %145

145:                                              ; preds = %144
  br label %146

146:                                              ; preds = %145
  br label %147

147:                                              ; preds = %146, %122
  %148 = load ptr, ptr %7, align 8, !tbaa !12
  %149 = getelementptr inbounds nuw %struct.H5C_log_trace_udata_t, ptr %148, i32 0, i32 0
  %150 = load ptr, ptr %149, align 8, !tbaa !27
  call void @setbuf(ptr noundef %150, ptr noundef null) #8
  %151 = load ptr, ptr %7, align 8, !tbaa !12
  %152 = getelementptr inbounds nuw %struct.H5C_log_trace_udata_t, ptr %151, i32 0, i32 0
  %153 = load ptr, ptr %152, align 8, !tbaa !27
  %154 = call i32 (ptr, ptr, ...) @fprintf(ptr noundef %153, ptr noundef @.str.7) #8
  br label %155

155:                                              ; preds = %147, %142, %103, %74, %47
  %156 = load ptr, ptr %8, align 8, !tbaa !8
  %157 = icmp ne ptr %156, null
  br i1 %157, label %158, label %161

158:                                              ; preds = %155
  %159 = load ptr, ptr %8, align 8, !tbaa !8
  %160 = call ptr @H5MM_xfree(ptr noundef %159)
  br label %161

161:                                              ; preds = %158, %155
  %162 = load i32, ptr %10, align 4, !tbaa !10
  %163 = icmp eq i32 -1, %162
  br i1 %163, label %164, label %188

164:                                              ; preds = %161
  %165 = load ptr, ptr %7, align 8, !tbaa !12
  %166 = icmp ne ptr %165, null
  br i1 %166, label %167, label %177

167:                                              ; preds = %164
  %168 = load ptr, ptr %7, align 8, !tbaa !12
  %169 = getelementptr inbounds nuw %struct.H5C_log_trace_udata_t, ptr %168, i32 0, i32 1
  %170 = load ptr, ptr %169, align 8, !tbaa !24
  %171 = icmp ne ptr %170, null
  br i1 %171, label %172, label %177

172:                                              ; preds = %167
  %173 = load ptr, ptr %7, align 8, !tbaa !12
  %174 = getelementptr inbounds nuw %struct.H5C_log_trace_udata_t, ptr %173, i32 0, i32 1
  %175 = load ptr, ptr %174, align 8, !tbaa !24
  %176 = call ptr @H5MM_xfree(ptr noundef %175)
  br label %177

177:                                              ; preds = %172, %167, %164
  %178 = load ptr, ptr %7, align 8, !tbaa !12
  %179 = icmp ne ptr %178, null
  br i1 %179, label %180, label %183

180:                                              ; preds = %177
  %181 = load ptr, ptr %7, align 8, !tbaa !12
  %182 = call ptr @H5MM_xfree(ptr noundef %181)
  br label %183

183:                                              ; preds = %180, %177
  %184 = load ptr, ptr %4, align 8, !tbaa !3
  %185 = getelementptr inbounds nuw %struct.H5C_log_info_t, ptr %184, i32 0, i32 3
  store ptr null, ptr %185, align 8, !tbaa !21
  %186 = load ptr, ptr %4, align 8, !tbaa !3
  %187 = getelementptr inbounds nuw %struct.H5C_log_info_t, ptr %186, i32 0, i32 2
  store ptr null, ptr %187, align 8, !tbaa !18
  br label %188

188:                                              ; preds = %183, %161
  br label %189

189:                                              ; preds = %188, %18
  %190 = load i32, ptr %10, align 4, !tbaa !10
  call void @llvm.lifetime.end.p0(i64 1, ptr %11) #8
  call void @llvm.lifetime.end.p0(i64 4, ptr %10) #8
  call void @llvm.lifetime.end.p0(i64 8, ptr %9) #8
  call void @llvm.lifetime.end.p0(i64 8, ptr %8) #8
  call void @llvm.lifetime.end.p0(i64 8, ptr %7) #8
  ret i32 %190
}