; Function Attrs: nounwind uwtable
define range(i32 -1, 1) i32 @H5C__log_trace_set_up(ptr noundef writeonly captures(none) %0, ptr noundef %1, i32 noundef %2) local_unnamed_addr #0 {
  %4 = load i8, ptr @H5C_init_g, align 1, !tbaa !3, !range !7, !noundef !8
  %5 = trunc nuw i8 %4 to i1
  %6 = load i8, ptr @H5_libterm_g, align 1, !range !7
  %7 = trunc nuw i8 %6 to i1
  %8 = xor i1 %7, true
  %9 = select i1 %5, i1 true, i1 %8
  br i1 %9, label %10, label %58, !prof !9

10:                                               ; preds = %3
  %11 = getelementptr inbounds nuw i8, ptr %0, i64 8
  store ptr @H5C_trace_log_class_g, ptr %11, align 8, !tbaa !10
  %12 = tail call noalias dereferenceable_or_null(16) ptr @calloc(i64 noundef 1, i64 noundef 16) #7
  %13 = getelementptr inbounds nuw i8, ptr %0, i64 16
  store ptr %12, ptr %13, align 8, !tbaa !14
  %14 = icmp eq ptr %12, null
  br i1 %14, label %49, label %15

15:                                               ; preds = %10
  %16 = tail call noalias dereferenceable_or_null(4096) ptr @calloc(i64 noundef 1, i64 noundef 4096) #7
  %17 = getelementptr inbounds nuw i8, ptr %12, i64 8
  store ptr %16, ptr %17, align 8, !tbaa !15
  %18 = icmp eq ptr %16, null
  br i1 %18, label %19, label %23

19:                                               ; preds = %15
  %20 = load i64, ptr @H5E_CACHE_g, align 8, !tbaa !19
  %21 = load i64, ptr @H5E_CANTALLOC_g, align 8, !tbaa !19
  %22 = tail call i32 (ptr, ptr, i32, i64, i64, ptr, ...) @H5E_printf_stack(ptr noundef nonnull @.str, ptr noundef nonnull @__func__.H5C__log_trace_set_up, i32 noundef 220, i64 noundef %20, i64 noundef %21, ptr noundef nonnull @.str.1) #8
  br label %.thread57

23:                                               ; preds = %15
  %24 = tail call i64 @strlen(ptr noundef nonnull dereferenceable(1) %1) #9
  %25 = add i64 %24, 41
  %26 = tail call noalias ptr @calloc(i64 noundef 1, i64 noundef %25) #7
  %27 = icmp eq ptr %26, null
  br i1 %27, label %28, label %32

28:                                               ; preds = %23
  %29 = load i64, ptr @H5E_CACHE_g, align 8, !tbaa !19
  %30 = load i64, ptr @H5E_CANTALLOC_g, align 8, !tbaa !19
  %31 = tail call i32 (ptr, ptr, i32, i64, i64, ptr, ...) @H5E_printf_stack(ptr noundef nonnull @.str, ptr noundef nonnull @__func__.H5C__log_trace_set_up, i32 noundef 232, i64 noundef %29, i64 noundef %30, ptr noundef nonnull @.str.2) #8
  br label %.thread57

32:                                               ; preds = %23
  %33 = icmp eq i32 %2, -1
  br i1 %33, label %34, label %36

34:                                               ; preds = %32
  %35 = tail call i32 (ptr, i64, ptr, ...) @snprintf(ptr noundef nonnull %26, i64 noundef %25, ptr noundef nonnull @.str.3, ptr noundef nonnull %1) #8
  br label %38

36:                                               ; preds = %32
  %37 = tail call i32 (ptr, i64, ptr, ...) @snprintf(ptr noundef nonnull %26, i64 noundef %25, ptr noundef nonnull @.str.4, ptr noundef nonnull %1, i32 noundef %2) #8
  br label %38

38:                                               ; preds = %36, %34
  %39 = tail call noalias ptr @fopen64(ptr noundef nonnull %26, ptr noundef nonnull @.str.5)
  store ptr %39, ptr %12, align 8, !tbaa !21
  %40 = icmp eq ptr %39, null
  br i1 %40, label %.thread52, label %45

.thread52:                                        ; preds = %38
  %41 = load i64, ptr @H5E_CACHE_g, align 8, !tbaa !19
  %42 = load i64, ptr @H5E_LOGGING_g, align 8, !tbaa !19
  %43 = tail call i32 (ptr, ptr, i32, i64, i64, ptr, ...) @H5E_printf_stack(ptr noundef nonnull @.str, ptr noundef nonnull @__func__.H5C__log_trace_set_up, i32 noundef 242, i64 noundef %41, i64 noundef %42, ptr noundef nonnull @.str.6) #8
  %44 = tail call ptr @H5MM_xfree(ptr noundef nonnull %26) #8
  br label %.thread57

45:                                               ; preds = %38
  tail call void @setbuf(ptr noundef nonnull %39, ptr noundef null) #8
  %46 = load ptr, ptr %12, align 8, !tbaa !21
  %47 = tail call i64 @fwrite(ptr nonnull @.str.7, i64 49, i64 1, ptr %46)
  %48 = tail call ptr @H5MM_xfree(ptr noundef nonnull %26) #8
  br label %58

49:                                               ; preds = %10
  %50 = load i64, ptr @H5E_CACHE_g, align 8, !tbaa !19
  %51 = load i64, ptr @H5E_CANTALLOC_g, align 8, !tbaa !19
  %52 = tail call i32 (ptr, ptr, i32, i64, i64, ptr, ...) @H5E_printf_stack(ptr noundef nonnull @.str, ptr noundef nonnull @__func__.H5C__log_trace_set_up, i32 noundef 215, i64 noundef %50, i64 noundef %51, ptr noundef nonnull @.str.1) #8
  br label %.critedge

.thread57:                                        ; preds = %19, %28, %.thread52
  %53 = load ptr, ptr %17, align 8, !tbaa !15
  %.not41 = icmp eq ptr %53, null
  br i1 %.not41, label %56, label %54

54:                                               ; preds = %.thread57
  %55 = tail call ptr @H5MM_xfree(ptr noundef nonnull %53) #8
  br label %56

56:                                               ; preds = %.thread57, %54
  %57 = tail call ptr @H5MM_xfree(ptr noundef nonnull %12) #8
  br label %.critedge

.critedge:                                        ; preds = %49, %56
  tail call void @llvm.memset.p0.i64(ptr noundef nonnull align 8 dereferenceable(16) %11, i8 0, i64 16, i1 false)
  br label %58

58:                                               ; preds = %45, %.critedge, %3
  %.0 = phi i32 [ -1, %.critedge ], [ 0, %45 ], [ 0, %3 ]
  ret i32 %.0
}